; Function Attrs: nounwind uwtable
define dso_local noundef i32 @luaopen_string(ptr noundef %0) local_unnamed_addr #0 {
  tail call void @lj_lib_register(ptr noundef %0, ptr noundef nonnull @.str, ptr noundef nonnull @lj_lib_init_string, ptr noundef nonnull @lj_lib_cf_string) #7
  %2 = tail call ptr @lj_tab_new(ptr noundef %0, i32 noundef 0, i32 noundef 1) #7
  %3 = getelementptr inbounds nuw i8, ptr %0, i64 16
  %4 = load i64, ptr %3, align 8, !tbaa !4
  %5 = inttoptr i64 %4 to ptr
  %6 = ptrtoint ptr %2 to i64
  %7 = getelementptr inbounds nuw i8, ptr %5, i64 424
  %8 = getelementptr inbounds nuw i8, ptr %5, i64 632
  store i64 %6, ptr %8, align 8, !tbaa !14
  %9 = load i64, ptr %7, align 8, !tbaa !14
  %10 = inttoptr i64 %9 to ptr
  %11 = tail call ptr @lj_tab_setstr(ptr noundef %0, ptr noundef %2, ptr noundef %10) #7
  %12 = getelementptr inbounds nuw i8, ptr %0, i64 40
  %13 = load ptr, ptr %12, align 8, !tbaa !15
  %14 = getelementptr inbounds i8, ptr %13, i64 -8
  %15 = load i64, ptr %14, align 8, !tbaa !16
  %16 = and i64 %15, 140737488355327
  %17 = or disjoint i64 %16, -1688849860263936
  store i64 %17, ptr %11, align 8, !tbaa !16
  %18 = getelementptr inbounds nuw i8, ptr %2, i64 10
  store i8 -2, ptr %18, align 2, !tbaa !17
  %19 = load ptr, ptr %12, align 8, !tbaa !15
  %20 = getelementptr inbounds i8, ptr %19, i64 -8
  %21 = load i64, ptr %20, align 8, !tbaa !16
  %22 = and i64 %21, 140737488355327
  %23 = inttoptr i64 %22 to ptr
  tail call void @lj_lib_prereg(ptr noundef %0, ptr noundef nonnull @.str.1, ptr noundef nonnull @luaopen_string_buffer, ptr noundef %23) #7
  ret i32 1
}